target datalayout = "e-m:e-p270:32:32-p271:32:32-p272:64:64-i64:64-i128:128-f80:128-n8:16:32:64-S128"
target triple = "x86_64-unknown-linux-gnu"

%struct.FLAC__BitWriter = type { ptr, i64, i32, i32, i32 }

@FLAC__STREAM_METADATA_LENGTH_LEN = external constant i32, align 4

; Function Attrs: nounwind sspstrong uwtable
define internal ptr @safe_realloc_nofree_mul_2op_(ptr noundef %ptr, i64 noundef %size1, i64 noundef %size2) #0 {
entry:
  %retval = alloca ptr, align 8
  %ptr.addr = alloca ptr, align 8
  %size1.addr = alloca i64, align 8
  %size2.addr = alloca i64, align 8
  store ptr %ptr, ptr %ptr.addr, align 8
  store i64 %size1, ptr %size1.addr, align 8
  store i64 %size2, ptr %size2.addr, align 8
  %0 = load i64, ptr %size1.addr, align 8
  %tobool = icmp ne i64 %0, 0
  br i1 %tobool, label %lor.lhs.false, label %if.then

lor.lhs.false:                                    ; preds = %entry
  %1 = load i64, ptr %size2.addr, align 8
  %tobool1 = icmp ne i64 %1, 0
  br i1 %tobool1, label %if.end, label %if.then

if.then:                                          ; preds = %lor.lhs.false, %entry
  %2 = load ptr, ptr %ptr.addr, align 8
  %call = call ptr @realloc(ptr noundef %2, i64 noundef 0) #10
  store ptr %call, ptr %retval, align 8
  br label %return

if.end:                                           ; preds = %lor.lhs.false
  %3 = load i64, ptr %size1.addr, align 8
  %4 = load i64, ptr %size2.addr, align 8
  %div = udiv i64 -1, %4
  %cmp = icmp ugt i64 %3, %div
  br i1 %cmp, label %if.then2, label %if.end3

if.then2:                                         ; preds = %if.end
  store ptr null, ptr %retval, align 8
  br label %return

if.end3:                                          ; preds = %if.end
  %5 = load ptr, ptr %ptr.addr, align 8
  %6 = load i64, ptr %size1.addr, align 8
  %7 = load i64, ptr %size2.addr, align 8
  %mul = mul i64 %6, %7
  %call4 = call ptr @realloc(ptr noundef %5, i64 noundef %mul) #10
  store ptr %call4, ptr %retval, align 8
  br label %return

return:                                           ; preds = %if.end3, %if.then2, %if.then
  %8 = load ptr, ptr %retval, align 8
  ret ptr %8
}

; Function Attrs: nounwind sspstrong uwtable
define internal i32 @bitwriter_grow_(ptr noundef %bw, i32 noundef %bits_to_add) #0 {
entry:
  %retval = alloca i32, align 4
  %bw.addr = alloca ptr, align 8
  %bits_to_add.addr = alloca i32, align 4
  %new_capacity = alloca i32, align 4
  %new_buffer = alloca ptr, align 8
  store ptr %bw, ptr %bw.addr, align 8
  store i32 %bits_to_add, ptr %bits_to_add.addr, align 4
  %0 = load ptr, ptr %bw.addr, align 8
  %words = getelementptr inbounds %struct.FLAC__BitWriter, ptr %0, i32 0, i32 3
  %1 = load i32, ptr %words, align 4
  %2 = load ptr, ptr %bw.addr, align 8
  %bits = getelementptr inbounds %struct.FLAC__BitWriter, ptr %2, i32 0, i32 4
  %3 = load i32, ptr %bits, align 8
  %4 = load i32, ptr %bits_to_add.addr, align 4
  %add = add i32 %3, %4
  %add1 = add i32 %add, 64
  %sub = sub i32 %add1, 1
  %div = udiv i32 %sub, 64
  %add2 = add i32 %1, %div
  store i32 %add2, ptr %new_capacity, align 4
  %5 = load ptr, ptr %bw.addr, align 8
  %capacity = getelementptr inbounds %struct.FLAC__BitWriter, ptr %5, i32 0, i32 2
  %6 = load i32, ptr %capacity, align 8
  %7 = load i32, ptr %new_capacity, align 4
  %cmp = icmp uge i32 %6, %7
  br i1 %cmp, label %if.then, label %if.end

if.then:                                          ; preds = %entry
  store i32 1, ptr %retval, align 4
  br label %return

if.end:                                           ; preds = %entry
  %8 = load i32, ptr %new_capacity, align 4
  %conv = zext i32 %8 to i64
  %mul = mul i64 %conv, 8
  %9 = load i32, ptr @FLAC__STREAM_METADATA_LENGTH_LEN, align 4
  %shl = shl i32 1, %9
  %conv3 = zext i32 %shl to i64
  %cmp4 = icmp ugt i64 %mul, %conv3
  br i1 %cmp4, label %if.then6, label %if.end7

if.then6:                                         ; preds = %if.end
  store i32 0, ptr %retval, align 4
  br label %return

if.end7:                                          ; preds = %if.end
  %10 = load i32, ptr %new_capacity, align 4
  %11 = load ptr, ptr %bw.addr, align 8
  %capacity8 = getelementptr inbounds %struct.FLAC__BitWriter, ptr %11, i32 0, i32 2
  %12 = load i32, ptr %capacity8, align 8
  %sub9 = sub i32 %10, %12
  %rem = urem i32 %sub9, 512
  %tobool = icmp ne i32 %rem, 0
  br i1 %tobool, label %if.then10, label %if.end16

if.then10:                                        ; preds = %if.end7
  %13 = load i32, ptr %new_capacity, align 4
  %14 = load ptr, ptr %bw.addr, align 8
  %capacity11 = getelementptr inbounds %struct.FLAC__BitWriter, ptr %14, i32 0, i32 2
  %15 = load i32, ptr %capacity11, align 8
  %sub12 = sub i32 %13, %15
  %rem13 = urem i32 %sub12, 512
  %sub14 = sub i32 512, %rem13
  %16 = load i32, ptr %new_capacity, align 4
  %add15 = add i32 %16, %sub14
  store i32 %add15, ptr %new_capacity, align 4
  br label %if.end16

if.end16:                                         ; preds = %if.then10, %if.end7
  %17 = load ptr, ptr %bw.addr, align 8
  %buffer = getelementptr inbounds %struct.FLAC__BitWriter, ptr %17, i32 0, i32 0
  %18 = load ptr, ptr %buffer, align 8
  %19 = load i32, ptr %new_capacity, align 4
  %conv17 = zext i32 %19 to i64
  %call = call ptr @safe_realloc_nofree_mul_2op_(ptr noundef %18, i64 noundef 8, i64 noundef %conv17)
  store ptr %call, ptr %new_buffer, align 8
  %20 = load ptr, ptr %new_buffer, align 8
  %cmp18 = icmp eq ptr %20, null
  br i1 %cmp18, label %if.then20, label %if.end21

if.then20:                                        ; preds = %if.end16
  store i32 0, ptr %retval, align 4
  br label %return

if.end21:                                         ; preds = %if.end16
  %21 = load ptr, ptr %new_buffer, align 8
  %22 = load ptr, ptr %bw.addr, align 8
  %buffer22 = getelementptr inbounds %struct.FLAC__BitWriter, ptr %22, i32 0, i32 0
  store ptr %21, ptr %buffer22, align 8
  %23 = load i32, ptr %new_capacity, align 4
  %24 = load ptr, ptr %bw.addr, align 8
  %capacity23 = getelementptr inbounds %struct.FLAC__BitWriter, ptr %24, i32 0, i32 2
  store i32 %23, ptr %capacity23, align 8
  store i32 1, ptr %retval, align 4
  br label %return

return:                                           ; preds = %if.end21, %if.then20, %if.then6, %if.then
  %25 = load i32, ptr %retval, align 4
  ret i32 %25
}

; Function Attrs: nounwind sspstrong uwtable
define hidden void @FLAC__bitwriter_release_buffer(ptr noundef %bw) #0 {
entry:
  %bw.addr = alloca ptr, align 8
  store ptr %bw, ptr %bw.addr, align 8
  ret void
}

; Function Attrs: nounwind sspstrong uwtable
define hidden i32 @FLAC__bitwriter_get_buffer(ptr noundef %bw, ptr noundef %buffer, ptr noundef %bytes) #0 {
entry:
  %retval = alloca i32, align 4
  %bw.addr = alloca ptr, align 8
  %buffer.addr = alloca ptr, align 8
  %bytes.addr = alloca ptr, align 8
  store ptr %bw, ptr %bw.addr, align 8
  store ptr %buffer, ptr %buffer.addr, align 8
  store ptr %bytes, ptr %bytes.addr, align 8
  %0 = load ptr, ptr %bw.addr, align 8
  %bits = getelementptr inbounds %struct.FLAC__BitWriter, ptr %0, i32 0, i32 4
  %1 = load i32, ptr %bits, align 8
  %and = and i32 %1, 7
  %tobool = icmp ne i32 %and, 0
  br i1 %tobool, label %if.then, label %if.end

if.then:                                          ; preds = %entry
  store i32 0, ptr %retval, align 4
  br label %return

if.end:                                           ; preds = %entry
  %2 = load ptr, ptr %bw.addr, align 8
  %bits1 = getelementptr inbounds %struct.FLAC__BitWriter, ptr %2, i32 0, i32 4
  %3 = load i32, ptr %bits1, align 8
  %tobool2 = icmp ne i32 %3, 0
  br i1 %tobool2, label %if.then3, label %if.end10

if.then3:                                         ; preds = %if.end
  %4 = load ptr, ptr %bw.addr, align 8
  %words = getelementptr inbounds %struct.FLAC__BitWriter, ptr %4, i32 0, i32 3
  %5 = load i32, ptr %words, align 4
  %6 = load ptr, ptr %bw.addr, align 8
  %capacity = getelementptr inbounds %struct.FLAC__BitWriter, ptr %6, i32 0, i32 2
  %7 = load i32, ptr %capacity, align 8
  %cmp = icmp eq i32 %5, %7
  br i1 %cmp, label %land.lhs.true, label %if.end6

land.lhs.true:                                    ; preds = %if.then3
  %8 = load ptr, ptr %bw.addr, align 8
  %call = call i32 @bitwriter_grow_(ptr noundef %8, i32 noundef 64)
  %tobool4 = icmp ne i32 %call, 0
  br i1 %tobool4, label %if.end6, label %if.then5

if.then5:                                         ; preds = %land.lhs.true
  store i32 0, ptr %retval, align 4
  br label %return

if.end6:                                          ; preds = %land.lhs.true, %if.then3
  %9 = load ptr, ptr %bw.addr, align 8
  %accum = getelementptr inbounds %struct.FLAC__BitWriter, ptr %9, i32 0, i32 1
  %10 = load i64, ptr %accum, align 8
  %11 = load ptr, ptr %bw.addr, align 8
  %bits7 = getelementptr inbounds %struct.FLAC__BitWriter, ptr %11, i32 0, i32 4
  %12 = load i32, ptr %bits7, align 8
  %sub = sub i32 64, %12
  %sh_prom = zext i32 %sub to i64
  %shl = shl i64 %10, %sh_prom
  %13 = call i64 @llvm.bswap.i64(i64 %shl)
  %14 = load ptr, ptr %bw.addr, align 8
  %buffer8 = getelementptr inbounds %struct.FLAC__BitWriter, ptr %14, i32 0, i32 0
  %15 = load ptr, ptr %buffer8, align 8
  %16 = load ptr, ptr %bw.addr, align 8
  %words9 = getelementptr inbounds %struct.FLAC__BitWriter, ptr %16, i32 0, i32 3
  %17 = load i32, ptr %words9, align 4
  %idxprom = zext i32 %17 to i64
  %arrayidx = getelementptr inbounds i64, ptr %15, i64 %idxprom
  store i64 %13, ptr %arrayidx, align 8
  br label %if.end10

if.end10:                                         ; preds = %if.end6, %if.end
  %18 = load ptr, ptr %bw.addr, align 8
  %buffer11 = getelementptr inbounds %struct.FLAC__BitWriter, ptr %18, i32 0, i32 0
  %19 = load ptr, ptr %buffer11, align 8
  %20 = load ptr, ptr %buffer.addr, align 8
  store ptr %19, ptr %20, align 8
  %21 = load ptr, ptr %bw.addr, align 8
  %words12 = getelementptr inbounds %struct.FLAC__BitWriter, ptr %21, i32 0, i32 3
  %22 = load i32, ptr %words12, align 4
  %mul = mul i32 8, %22
  %23 = load ptr, ptr %bw.addr, align 8
  %bits13 = getelementptr inbounds %struct.FLAC__BitWriter, ptr %23, i32 0, i32 4
  %24 = load i32, ptr %bits13, align 8
  %shr = lshr i32 %24, 3
  %add = add i32 %mul, %shr
  %conv = zext i32 %add to i64
  %25 = load ptr, ptr %bytes.addr, align 8
  store i64 %conv, ptr %25, align 8
  store i32 1, ptr %retval, align 4
  br label %return

return:                                           ; preds = %if.end10, %if.then5, %if.then
  %26 = load i32, ptr %retval, align 4
  ret i32 %26
}

; Function Attrs: nounwind sspstrong uwtable
define hidden i32 @FLAC__bitwriter_get_write_crc16(ptr noundef %bw, ptr noundef %crc) #0 {
entry:
  %retval = alloca i32, align 4
  %bw.addr = alloca ptr, align 8
  %crc.addr = alloca ptr, align 8
  %buffer = alloca ptr, align 8
  %bytes = alloca i64, align 8
  store ptr %bw, ptr %bw.addr, align 8
  store ptr %crc, ptr %crc.addr, align 8
  %0 = load ptr, ptr %bw.addr, align 8
  %call = call i32 @FLAC__bitwriter_get_buffer(ptr noundef %0, ptr noundef %buffer, ptr noundef %bytes)
  %tobool = icmp ne i32 %call, 0
  br i1 %tobool, label %if.end, label %if.then

if.then:                                          ; preds = %entry
  store i32 0, ptr %retval, align 4
  br label %return

if.end:                                           ; preds = %entry
  %1 = load ptr, ptr %buffer, align 8
  %2 = load i64, ptr %bytes, align 8
  %conv = trunc i64 %2 to i32
  %call1 = call zeroext i16 @FLAC__crc16(ptr noundef %1, i32 noundef %conv)
  %3 = load ptr, ptr %crc.addr, align 8
  store i16 %call1, ptr %3, align 2
  %4 = load ptr, ptr %bw.addr, align 8
  call void @FLAC__bitwriter_release_buffer(ptr noundef %4)
  store i32 1, ptr %retval, align 4
  br label %return

return:                                           ; preds = %if.end, %if.then
  %5 = load i32, ptr %retval, align 4
  ret i32 %5
}