; Function Attrs: nounwind sspstrong uwtable
define hidden range(i32 0, 2) i32 @FLAC__bitwriter_get_write_crc16(ptr noundef captures(none) %bw, ptr noundef writeonly captures(none) %crc) local_unnamed_addr #7 {
entry:
  %bits.i = getelementptr inbounds nuw i8, ptr %bw, i64 24
  %0 = load i32, ptr %bits.i, align 8
  %and.i = and i32 %0, 7
  %tobool.not.i = icmp eq i32 %and.i, 0
  br i1 %tobool.not.i, label %if.end.i, label %return

if.end.i:                                         ; preds = %entry
  %tobool2.not.i = icmp eq i32 %0, 0
  br i1 %tobool2.not.i, label %if.end, label %if.then3.i

if.then3.i:                                       ; preds = %if.end.i
  %words.i = getelementptr inbounds nuw i8, ptr %bw, i64 20
  %1 = load i32, ptr %words.i, align 4
  %capacity.i = getelementptr inbounds nuw i8, ptr %bw, i64 16
  %2 = load i32, ptr %capacity.i, align 8
  %cmp.i = icmp eq i32 %1, %2
  br i1 %cmp.i, label %land.lhs.true.i, label %if.end6.i

land.lhs.true.i:                                  ; preds = %if.then3.i
  %sub.i.i = add i32 %0, 127
  %div15.i.i = lshr i32 %sub.i.i, 6
  %add2.i.i = add i32 %1, %div15.i.i
  %cmp.not.i.i = icmp ult i32 %1, %add2.i.i
  br i1 %cmp.not.i.i, label %if.end.i.i, label %if.end6.i

if.end.i.i:                                       ; preds = %land.lhs.true.i
  %conv.i.i = zext i32 %add2.i.i to i64
  %mul.i.i = shl nuw nsw i64 %conv.i.i, 3
  %3 = load i32, ptr @FLAC__STREAM_METADATA_LENGTH_LEN, align 4
  %shl.i.i = shl nuw i32 1, %3
  %conv3.i.i = zext i32 %shl.i.i to i64
  %cmp4.i.i = icmp samesign ugt i64 %mul.i.i, %conv3.i.i
  br i1 %cmp4.i.i, label %return, label %if.end7.i.i

if.end7.i.i:                                      ; preds = %if.end.i.i
  %rem.i.i = and i32 %div15.i.i, 511
  %tobool.not.i.i = icmp eq i32 %rem.i.i, 0
  %reass.sub = sub i32 %add2.i.i, %rem.i.i
  %add15.i.i = add i32 %reass.sub, 512
  %new_capacity.0.i.i = select i1 %tobool.not.i.i, i32 %add2.i.i, i32 %add15.i.i
  %4 = load ptr, ptr %bw, align 8
  %conv17.i.i = zext i32 %new_capacity.0.i.i to i64
  %mul.i.i.i = shl nuw nsw i64 %conv17.i.i, 3
  %call4.i.i.i = tail call noalias noundef ptr @realloc(ptr noundef %4, i64 noundef %mul.i.i.i) #17
  %cmp18.i.i = icmp eq ptr %call4.i.i.i, null
  br i1 %cmp18.i.i, label %return, label %if.end21.i.i

if.end21.i.i:                                     ; preds = %if.end7.i.i
  store ptr %call4.i.i.i, ptr %bw, align 8
  store i32 %new_capacity.0.i.i, ptr %capacity.i, align 8
  %.pre.i = load i32, ptr %bits.i, align 8
  %.pre14.i = load i32, ptr %words.i, align 4
  br label %if.end6.i

if.end6.i:                                        ; preds = %if.end21.i.i, %land.lhs.true.i, %if.then3.i
  %5 = phi i32 [ %.pre14.i, %if.end21.i.i ], [ %1, %land.lhs.true.i ], [ %1, %if.then3.i ]
  %6 = phi i32 [ %.pre.i, %if.end21.i.i ], [ %0, %land.lhs.true.i ], [ %0, %if.then3.i ]
  %accum.i = getelementptr inbounds nuw i8, ptr %bw, i64 8
  %7 = load i64, ptr %accum.i, align 8
  %sub.i = sub i32 64, %6
  %sh_prom.i = zext nneg i32 %sub.i to i64
  %shl.i = shl i64 %7, %sh_prom.i
  %8 = tail call i64 @llvm.bswap.i64(i64 %shl.i)
  %9 = load ptr, ptr %bw, align 8
  %idxprom.i = zext i32 %5 to i64
  %arrayidx.i = getelementptr inbounds nuw i64, ptr %9, i64 %idxprom.i
  store i64 %8, ptr %arrayidx.i, align 8
  %.pre = load i32, ptr %bits.i, align 8
  %10 = lshr i32 %.pre, 3
  br label %if.end

if.end:                                           ; preds = %if.end6.i, %if.end.i
  %shr.i = phi i32 [ %10, %if.end6.i ], [ 0, %if.end.i ]
  %11 = load ptr, ptr %bw, align 8
  %words12.i = getelementptr inbounds nuw i8, ptr %bw, i64 20
  %12 = load i32, ptr %words12.i, align 4
  %mul.i = shl i32 %12, 3
  %add.i = add i32 %shr.i, %mul.i
  %call1 = tail call zeroext i16 @FLAC__crc16(ptr noundef %11, i32 noundef %add.i) #15
  store i16 %call1, ptr %crc, align 2
  br label %return

return:                                           ; preds = %if.end7.i.i, %if.end.i.i, %entry, %if.end
  %retval.0 = phi i32 [ 1, %if.end ], [ 0, %entry ], [ 0, %if.end.i.i ], [ 0, %if.end7.i.i ]
  ret i32 %retval.0
}